target datalayout = "e-m:e-p270:32:32-p271:32:32-p272:64:64-i64:64-i128:128-f80:128-n8:16:32:64-S128"
target triple = "x86_64-pc-linux-gnu"

%"class.Luau::AstStatBlock" = type <{ %"class.Luau::AstStat.base", [3 x i8], %"struct.Luau::AstArray.305", i8, [7 x i8] }>
%"class.Luau::AstStat.base" = type { %"class.Luau::AstNode.base", i8 }
%"class.Luau::AstNode.base" = type <{ ptr, i32, %"struct.Luau::Location" }>
%"struct.Luau::Location" = type { %"struct.Luau::Position", %"struct.Luau::Position" }
%"struct.Luau::Position" = type { i32, i32 }
%"struct.Luau::AstArray.305" = type { ptr, i64 }
%"class.Luau::AstNode" = type <{ ptr, i32, %"struct.Luau::Location", [4 x i8] }>
%"class.Luau::AstStatIf" = type { %"class.Luau::AstStat.base", ptr, ptr, ptr, %"class.std::optional.296", %"class.std::optional.296" }
%"class.std::optional.296" = type { %"struct.std::_Optional_base.297" }
%"struct.std::_Optional_base.297" = type { %"struct.std::_Optional_payload.299" }
%"struct.std::_Optional_payload.299" = type { %"struct.std::_Optional_payload_base.base.301", [3 x i8] }
%"struct.std::_Optional_payload_base.base.301" = type <{ %"union.std::_Optional_payload_base<Luau::Location>::_Storage", i8 }>
%"union.std::_Optional_payload_base<Luau::Location>::_Storage" = type { %"struct.Luau::Location" }

@_ZN4Luau7AstRttiINS_12AstStatBlockEE5valueE = linkonce_odr dso_local global i32 0, comdat, align 4
@_ZN4Luau7AstRttiINS_9AstStatIfEE5valueE = linkonce_odr dso_local global i32 0, comdat, align 4
@_ZN4Luau7AstRttiINS_12AstStatBreakEE5valueE = linkonce_odr dso_local global i32 0, comdat, align 4

; Function Attrs: mustprogress nounwind uwtable
define linkonce_odr dso_local noundef i32 @_ZN4Luau9AstStatIf10ClassIndexEv() #2 comdat align 2 {
  %1 = load i32, ptr @_ZN4Luau7AstRttiINS_9AstStatIfEE5valueE, align 4, !tbaa !4
  ret i32 %1
}

; Function Attrs: mustprogress nounwind uwtable
define linkonce_odr dso_local noundef i32 @_ZN4Luau12AstStatBreak10ClassIndexEv() #2 comdat align 2 {
  %1 = load i32, ptr @_ZN4Luau7AstRttiINS_12AstStatBreakEE5valueE, align 4, !tbaa !4
  ret i32 %1
}

; Function Attrs: mustprogress nounwind uwtable
define linkonce_odr dso_local noundef i32 @_ZN4Luau12AstStatBlock10ClassIndexEv() #2 comdat align 2 {
  %1 = load i32, ptr @_ZN4Luau7AstRttiINS_12AstStatBlockEE5valueE, align 4, !tbaa !4
  ret i32 %1
}

; Function Attrs: mustprogress uwtable
define linkonce_odr dso_local noundef ptr @_ZN4Luau7AstNode2asINS_9AstStatIfEEEPT_v(ptr noundef nonnull align 8 dereferenceable(28) %0) #7 comdat align 2 {
  %2 = alloca ptr, align 8
  store ptr %0, ptr %2, align 8, !tbaa !317
  %3 = load ptr, ptr %2, align 8
  %4 = getelementptr inbounds nuw %"class.Luau::AstNode", ptr %3, i32 0, i32 1
  %5 = load i32, ptr %4, align 8, !tbaa !319
  %6 = call noundef i32 @_ZN4Luau9AstStatIf10ClassIndexEv()
  %7 = icmp eq i32 %5, %6
  br i1 %7, label %8, label %9

8:                                                ; preds = %1
  br label %10

9:                                                ; preds = %1
  br label %10

10:                                               ; preds = %9, %8
  %11 = phi ptr [ %3, %8 ], [ null, %9 ]
  ret ptr %11
}

; Function Attrs: mustprogress uwtable
define linkonce_odr dso_local noundef zeroext i1 @_ZNK4Luau7AstNode2isINS_12AstStatBreakEEEbv(ptr noundef nonnull align 8 dereferenceable(28) %0) #7 comdat align 2 {
  %2 = alloca ptr, align 8
  store ptr %0, ptr %2, align 8, !tbaa !317
  %3 = load ptr, ptr %2, align 8
  %4 = getelementptr inbounds nuw %"class.Luau::AstNode", ptr %3, i32 0, i32 1
  %5 = load i32, ptr %4, align 8, !tbaa !319
  %6 = call noundef i32 @_ZN4Luau12AstStatBreak10ClassIndexEv()
  %7 = icmp eq i32 %5, %6
  ret i1 %7
}

; Function Attrs: mustprogress uwtable
define linkonce_odr dso_local noundef ptr @_ZN4Luau7AstNode2asINS_12AstStatBlockEEEPT_v(ptr noundef nonnull align 8 dereferenceable(28) %0) #7 comdat align 2 {
  %2 = alloca ptr, align 8
  store ptr %0, ptr %2, align 8, !tbaa !317
  %3 = load ptr, ptr %2, align 8
  %4 = getelementptr inbounds nuw %"class.Luau::AstNode", ptr %3, i32 0, i32 1
  %5 = load i32, ptr %4, align 8, !tbaa !319
  %6 = call noundef i32 @_ZN4Luau12AstStatBlock10ClassIndexEv()
  %7 = icmp eq i32 %5, %6
  br i1 %7, label %8, label %9

8:                                                ; preds = %1
  br label %10

9:                                                ; preds = %1
  br label %10

10:                                               ; preds = %9, %8
  %11 = phi ptr [ %3, %8 ], [ null, %9 ]
  ret ptr %11
}

; Function Attrs: mustprogress uwtable
define dso_local noundef zeroext i1 @_ZN4Luau12TypeChecker28hasBreakEPNS_7AstStatE(ptr noundef nonnull align 8 dereferenceable(784) %0, ptr noundef %1) #7 align 2 {
  %3 = alloca i1, align 1
  %4 = alloca ptr, align 8
  %5 = alloca ptr, align 8
  %6 = alloca ptr, align 8
  %7 = alloca i64, align 8
  %8 = alloca i32, align 4
  %9 = alloca ptr, align 8
  store ptr %0, ptr %4, align 8, !tbaa !131
  store ptr %1, ptr %5, align 8, !tbaa !139
  %10 = load ptr, ptr %4, align 8
  call void @llvm.lifetime.start.p0(i64 8, ptr %6) #4
  %11 = load ptr, ptr %5, align 8, !tbaa !139
  %12 = call noundef ptr @_ZN4Luau7AstNode2asINS_12AstStatBlockEEEPT_v(ptr noundef nonnull align 8 dereferenceable(28) %11)
  store ptr %12, ptr %6, align 8, !tbaa !133
  %13 = load ptr, ptr %6, align 8, !tbaa !133
  %14 = icmp ne ptr %13, null
  br i1 %14, label %15, label %41

15:                                               ; preds = %2
  call void @llvm.lifetime.start.p0(i64 8, ptr %7) #4
  store i64 0, ptr %7, align 8, !tbaa !33
  br label %16

16:                                               ; preds = %35, %15
  %17 = load i64, ptr %7, align 8, !tbaa !33
  %18 = load ptr, ptr %6, align 8, !tbaa !133
  %19 = getelementptr inbounds nuw %"class.Luau::AstStatBlock", ptr %18, i32 0, i32 2
  %20 = getelementptr inbounds nuw %"struct.Luau::AstArray.305", ptr %19, i32 0, i32 1
  %21 = load i64, ptr %20, align 8, !tbaa !324
  %22 = icmp ult i64 %17, %21
  br i1 %22, label %24, label %23

23:                                               ; preds = %16
  store i32 2, ptr %8, align 4
  br label %38

24:                                               ; preds = %16
  %25 = load ptr, ptr %6, align 8, !tbaa !133
  %26 = getelementptr inbounds nuw %"class.Luau::AstStatBlock", ptr %25, i32 0, i32 2
  %27 = getelementptr inbounds nuw %"struct.Luau::AstArray.305", ptr %26, i32 0, i32 0
  %28 = load ptr, ptr %27, align 8, !tbaa !328
  %29 = load i64, ptr %7, align 8, !tbaa !33
  %30 = getelementptr inbounds nuw ptr, ptr %28, i64 %29
  %31 = load ptr, ptr %30, align 8, !tbaa !139
  %32 = call noundef zeroext i1 @_ZN4Luau12TypeChecker28hasBreakEPNS_7AstStatE(ptr noundef nonnull align 8 dereferenceable(784) %10, ptr noundef %31)
  br i1 %32, label %33, label %34

33:                                               ; preds = %24
  store i1 true, ptr %3, align 1
  store i32 1, ptr %8, align 4
  br label %38

34:                                               ; preds = %24
  br label %35

35:                                               ; preds = %34
  %36 = load i64, ptr %7, align 8, !tbaa !33
  %37 = add i64 %36, 1
  store i64 %37, ptr %7, align 8, !tbaa !33
  br label %16, !llvm.loop !329

38:                                               ; preds = %33, %23
  call void @llvm.lifetime.end.p0(i64 8, ptr %7) #4
  %39 = load i32, ptr %8, align 4
  switch i32 %39, label %42 [
    i32 2, label %40
  ]

40:                                               ; preds = %38
  store i1 false, ptr %3, align 1
  store i32 1, ptr %8, align 4
  br label %42

41:                                               ; preds = %2
  store i32 0, ptr %8, align 4
  br label %42

42:                                               ; preds = %41, %40, %38
  call void @llvm.lifetime.end.p0(i64 8, ptr %6) #4
  %43 = load i32, ptr %8, align 4
  switch i32 %43, label %77 [
    i32 0, label %44
    i32 1, label %75
  ]

44:                                               ; preds = %42
  %45 = load ptr, ptr %5, align 8, !tbaa !139
  %46 = call noundef zeroext i1 @_ZNK4Luau7AstNode2isINS_12AstStatBreakEEEbv(ptr noundef nonnull align 8 dereferenceable(28) %45)
  br i1 %46, label %47, label %48

47:                                               ; preds = %44
  store i1 true, ptr %3, align 1
  br label %75

48:                                               ; preds = %44
  call void @llvm.lifetime.start.p0(i64 8, ptr %9) #4
  %49 = load ptr, ptr %5, align 8, !tbaa !139
  %50 = call noundef ptr @_ZN4Luau7AstNode2asINS_9AstStatIfEEEPT_v(ptr noundef nonnull align 8 dereferenceable(28) %49)
  store ptr %50, ptr %9, align 8, !tbaa !331
  %51 = load ptr, ptr %9, align 8, !tbaa !331
  %52 = icmp ne ptr %51, null
  br i1 %52, label %53, label %71

53:                                               ; preds = %48
  %54 = load ptr, ptr %9, align 8, !tbaa !331
  %55 = getelementptr inbounds nuw %"class.Luau::AstStatIf", ptr %54, i32 0, i32 2
  %56 = load ptr, ptr %55, align 8, !tbaa !333
  %57 = call noundef zeroext i1 @_ZN4Luau12TypeChecker28hasBreakEPNS_7AstStatE(ptr noundef nonnull align 8 dereferenceable(784) %10, ptr noundef %56)
  br i1 %57, label %58, label %59

58:                                               ; preds = %53
  store i1 true, ptr %3, align 1
  store i32 1, ptr %8, align 4
  br label %72

59:                                               ; preds = %53
  %60 = load ptr, ptr %9, align 8, !tbaa !331
  %61 = getelementptr inbounds nuw %"class.Luau::AstStatIf", ptr %60, i32 0, i32 3
  %62 = load ptr, ptr %61, align 8, !tbaa !339
  %63 = icmp ne ptr %62, null
  br i1 %63, label %64, label %70

64:                                               ; preds = %59
  %65 = load ptr, ptr %9, align 8, !tbaa !331
  %66 = getelementptr inbounds nuw %"class.Luau::AstStatIf", ptr %65, i32 0, i32 3
  %67 = load ptr, ptr %66, align 8, !tbaa !339
  %68 = call noundef zeroext i1 @_ZN4Luau12TypeChecker28hasBreakEPNS_7AstStatE(ptr noundef nonnull align 8 dereferenceable(784) %10, ptr noundef %67)
  br i1 %68, label %69, label %70

69:                                               ; preds = %64
  store i1 true, ptr %3, align 1
  store i32 1, ptr %8, align 4
  br label %72

70:                                               ; preds = %64, %59
  store i1 false, ptr %3, align 1
  store i32 1, ptr %8, align 4
  br label %72

71:                                               ; preds = %48
  store i32 0, ptr %8, align 4
  br label %72

72:                                               ; preds = %71, %70, %69, %58
  call void @llvm.lifetime.end.p0(i64 8, ptr %9) #4
  %73 = load i32, ptr %8, align 4
  switch i32 %73, label %77 [
    i32 0, label %74
    i32 1, label %75
  ]

74:                                               ; preds = %72
  store i1 false, ptr %3, align 1
  br label %75

75:                                               ; preds = %74, %72, %47, %42
  %76 = load i1, ptr %3, align 1
  ret i1 %76

77:                                               ; preds = %72, %42
  unreachable
}