; Function Attrs: mustprogress nofree nosync nounwind willreturn memory(read, inaccessiblemem: none) uwtable
define dso_local noundef zeroext i1 @_ZN4Luau12TypeChecker28hasBreakEPNS_7AstStatE(ptr noundef nonnull align 8 dereferenceable(784) %0, ptr noundef readonly %1) local_unnamed_addr #10 align 2 {
  %3 = getelementptr inbounds nuw i8, ptr %1, i64 8
  %4 = load i32, ptr %3, align 8, !tbaa !244
  %5 = load i32, ptr @_ZN4Luau7AstRttiINS_12AstStatBlockEE5valueE, align 4, !tbaa !4
  %6 = icmp ne i32 %4, %5
  %.not.not33 = icmp eq ptr %1, null
  %.not.not = or i1 %.not.not33, %6
  br i1 %.not.not, label %.thread, label %.preheader

.preheader:                                       ; preds = %2
  %7 = getelementptr inbounds nuw i8, ptr %1, i64 40
  %8 = load i64, ptr %7, align 8, !tbaa !252
  %.not2335.not = icmp eq i64 %8, 0
  br i1 %.not2335.not, label %.loopexit, label %.lr.ph

.lr.ph:                                           ; preds = %.preheader
  %9 = getelementptr inbounds nuw i8, ptr %1, i64 32
  %10 = load ptr, ptr %9, align 8, !tbaa !255
  br label %11

11:                                               ; preds = %11, %.lr.ph
  %.02036 = phi i64 [ 0, %.lr.ph ], [ %15, %11 ]
  %12 = getelementptr inbounds nuw ptr, ptr %10, i64 %.02036
  %13 = load ptr, ptr %12, align 8, !tbaa !93
  %14 = tail call noundef zeroext i1 @_ZN4Luau12TypeChecker28hasBreakEPNS_7AstStatE(ptr noundef nonnull align 8 dereferenceable(784) %0, ptr noundef %13)
  %15 = add nuw i64 %.02036, 1
  %exitcond.not = icmp eq i64 %15, %8
  %or.cond = select i1 %14, i1 true, i1 %exitcond.not
  br i1 %or.cond, label %.loopexit, label %11, !llvm.loop !256

.thread:                                          ; preds = %2
  %16 = load i32, ptr @_ZN4Luau7AstRttiINS_12AstStatBreakEE5valueE, align 4, !tbaa !4
  %17 = icmp eq i32 %4, %16
  br i1 %17, label %.loopexit, label %18

18:                                               ; preds = %.thread
  %19 = load i32, ptr @_ZN4Luau7AstRttiINS_9AstStatIfEE5valueE, align 4, !tbaa !4
  %20 = icmp eq i32 %4, %19
  br i1 %20, label %21, label %31

21:                                               ; preds = %18
  %22 = getelementptr inbounds nuw i8, ptr %1, i64 40
  %23 = load ptr, ptr %22, align 8, !tbaa !257
  %24 = tail call noundef zeroext i1 @_ZN4Luau12TypeChecker28hasBreakEPNS_7AstStatE(ptr noundef nonnull align 8 dereferenceable(784) %0, ptr noundef %23)
  br i1 %24, label %31, label %25

25:                                               ; preds = %21
  %26 = getelementptr inbounds nuw i8, ptr %1, i64 48
  %27 = load ptr, ptr %26, align 8, !tbaa !263
  %.not25 = icmp eq ptr %27, null
  br i1 %.not25, label %30, label %28

28:                                               ; preds = %25
  %29 = tail call noundef zeroext i1 @_ZN4Luau12TypeChecker28hasBreakEPNS_7AstStatE(ptr noundef nonnull align 8 dereferenceable(784) %0, ptr noundef nonnull %27)
  br i1 %29, label %31, label %30

30:                                               ; preds = %28, %25
  br label %31

31:                                               ; preds = %18, %28, %21, %30
  %.3 = phi i1 [ false, %30 ], [ true, %21 ], [ true, %28 ], [ undef, %18 ]
  %spec.select28 = and i1 %20, %.3
  br label %.loopexit

.loopexit:                                        ; preds = %11, %.preheader, %31, %.thread
  %.2 = phi i1 [ true, %.thread ], [ %spec.select28, %31 ], [ false, %.preheader ], [ %14, %11 ]
  ret i1 %.2
}